target datalayout = "e-m:e-p270:32:32-p271:32:32-p272:64:64-i64:64-i128:128-f80:128-n8:16:32:64-S128"
target triple = "x86_64-pc-linux-gnu"

%"class.sat::cut_set" = type { i32, ptr, i32, i32, ptr }

@.str = private unnamed_addr constant [106 x i8] c"generated/home/dtcxzyw/WorkSpace/Projects/compilers/llvm-opt-benchmark/bench/z3/z3/src/sat/sat_cutset.cpp\00", align 1
@.str.3 = private unnamed_addr constant [47 x i8] c"Failed to verify: !m_region || m_max_size > 0\0A\00", align 1

; Function Attrs: mustprogress uwtable
define hidden void @_ZN3sat7cut_set4initER6regionjj(ptr noundef nonnull align 8 dereferenceable(32) %0, ptr noundef nonnull align 8 dereferenceable(40) %1, i32 noundef %2, i32 noundef %3) #4 align 2 {
  %5 = alloca ptr, align 8
  %6 = alloca ptr, align 8
  %7 = alloca i32, align 4
  %8 = alloca i32, align 4
  store ptr %0, ptr %5, align 8, !tbaa !3
  store ptr %1, ptr %6, align 8, !tbaa !64
  store i32 %2, ptr %7, align 4, !tbaa !12
  store i32 %3, ptr %8, align 4, !tbaa !12
  %9 = load ptr, ptr %5, align 8
  %10 = load i32, ptr %8, align 4, !tbaa !12
  %11 = getelementptr inbounds nuw %"class.sat::cut_set", ptr %9, i32 0, i32 0
  store i32 %10, ptr %11, align 8, !tbaa !31
  %12 = getelementptr inbounds nuw %"class.sat::cut_set", ptr %9, i32 0, i32 2
  store i32 0, ptr %12, align 8, !tbaa !14
  %13 = getelementptr inbounds nuw %"class.sat::cut_set", ptr %9, i32 0, i32 1
  %14 = load ptr, ptr %13, align 8, !tbaa !30
  %15 = icmp ne ptr %14, null
  br i1 %15, label %16, label %21

16:                                               ; preds = %4
  %17 = getelementptr inbounds nuw %"class.sat::cut_set", ptr %9, i32 0, i32 3
  %18 = load i32, ptr %17, align 4, !tbaa !29
  %19 = icmp ugt i32 %18, 0
  br i1 %19, label %21, label %20

20:                                               ; preds = %16
  call void @_Z26notify_assertion_violationPKciS0_(ptr noundef @.str, i32 noundef 114, ptr noundef @.str.3)
  call void @_Z18invoke_exit_actionj(i32 noundef 114)
  br label %21

21:                                               ; preds = %20, %16, %4
  %22 = getelementptr inbounds nuw %"class.sat::cut_set", ptr %9, i32 0, i32 1
  %23 = load ptr, ptr %22, align 8, !tbaa !30
  %24 = icmp ne ptr %23, null
  br i1 %24, label %30, label %25

25:                                               ; preds = %21
  %26 = getelementptr inbounds nuw %"class.sat::cut_set", ptr %9, i32 0, i32 3
  store i32 2, ptr %26, align 4, !tbaa !29
  %27 = load ptr, ptr %6, align 8, !tbaa !64
  %28 = getelementptr inbounds nuw %"class.sat::cut_set", ptr %9, i32 0, i32 1
  store ptr %27, ptr %28, align 8, !tbaa !30
  %29 = getelementptr inbounds nuw %"class.sat::cut_set", ptr %9, i32 0, i32 4
  store ptr null, ptr %29, align 8, !tbaa !17
  br label %30

30:                                               ; preds = %25, %21
  ret void
}