; Function Attrs: mustprogress uwtable
define hidden void @_ZN3sat7cut_set4initER6regionjj(ptr noundef nonnull align 8 captures(none) dereferenceable(32) initializes((0, 4), (16, 20)) %0, ptr noundef nonnull align 8 dereferenceable(40) %1, i32 noundef %2, i32 noundef %3) local_unnamed_addr #3 align 2 {
  store i32 %3, ptr %0, align 8, !tbaa !23
  %5 = getelementptr inbounds nuw i8, ptr %0, i64 16
  store i32 0, ptr %5, align 8, !tbaa !3
  %6 = getelementptr inbounds nuw i8, ptr %0, i64 8
  %7 = load ptr, ptr %6, align 8, !tbaa !30
  %.not = icmp ne ptr %7, null
  %8 = getelementptr inbounds nuw i8, ptr %0, i64 20
  %9 = load i32, ptr %8, align 4
  %.not2 = icmp eq i32 %9, 0
  %or.cond = select i1 %.not, i1 %.not2, i1 false
  br i1 %or.cond, label %10, label %11

10:                                               ; preds = %4
  tail call void @_Z26notify_assertion_violationPKciS0_(ptr noundef nonnull @.str, i32 noundef 114, ptr noundef nonnull @.str.3)
  tail call void @_Z18invoke_exit_actionj(i32 noundef 114)
  %.pre = load ptr, ptr %6, align 8, !tbaa !30
  br label %11

11:                                               ; preds = %10, %4
  %12 = phi ptr [ %.pre, %10 ], [ %7, %4 ]
  %.not3 = icmp eq ptr %12, null
  br i1 %.not3, label %13, label %15

13:                                               ; preds = %11
  store i32 2, ptr %8, align 4, !tbaa !29
  store ptr %1, ptr %6, align 8, !tbaa !30
  %14 = getelementptr inbounds nuw i8, ptr %0, i64 24
  store ptr null, ptr %14, align 8, !tbaa !11
  br label %15

15:                                               ; preds = %13, %11
  ret void
}